; Function Attrs: nounwind uwtable
define ptr @l_Lean_Server_References_removeIlean___boxed(ptr noundef %0, ptr noundef %1) local_unnamed_addr #0 {
  %3 = getelementptr inbounds nuw i8, ptr %0, i64 8
  %4 = load ptr, ptr %3, align 8, !tbaa !4
  %5 = ptrtoint ptr %4 to i64
  %6 = and i64 %5, 1
  %.not.i4 = icmp eq i64 %6, 0
  br i1 %.not.i4, label %7, label %lean_inc.exit.i

7:                                                ; preds = %2
  %.val.i.i = load i32, ptr %4, align 4, !tbaa !8
  %8 = icmp sgt i32 %.val.i.i, 0
  br i1 %8, label %9, label %11, !prof !11

9:                                                ; preds = %7
  %10 = add nuw i32 %.val.i.i, 1
  store i32 %10, ptr %4, align 4, !tbaa !8
  br label %lean_inc.exit.i

11:                                               ; preds = %7
  %.not.i8.i = icmp eq i32 %.val.i.i, 0
  br i1 %.not.i8.i, label %lean_inc.exit.i, label %12

12:                                               ; preds = %11
  tail call void @lean_inc_ref_cold(ptr noundef nonnull %4) #8
  br label %lean_inc.exit.i

lean_inc.exit.i:                                  ; preds = %12, %11, %9, %2
  %13 = tail call ptr @l_Std_DTreeMap_Internal_Impl_filter___at_Lean_Server_References_removeIlean___spec__1(ptr noundef %1, ptr noundef %4, ptr nonnull poison)
  %14 = tail call ptr @l_Std_DTreeMap_Internal_Impl_foldlM___at_Lean_Server_References_removeIlean___spec__3(ptr noundef nonnull %0, ptr noundef %13)
  %15 = ptrtoint ptr %13 to i64
  %16 = and i64 %15, 1
  %.not9.i = icmp eq i64 %16, 0
  br i1 %.not9.i, label %17, label %l_Lean_Server_References_removeIlean.exit

17:                                               ; preds = %lean_inc.exit.i
  %18 = load i32, ptr %13, align 4, !tbaa !8
  %19 = icmp sgt i32 %18, 1
  br i1 %19, label %20, label %22, !prof !11

20:                                               ; preds = %17
  %21 = add nsw i32 %18, -1
  store i32 %21, ptr %13, align 4, !tbaa !8
  br label %l_Lean_Server_References_removeIlean.exit

22:                                               ; preds = %17
  %.not.i.i = icmp eq i32 %18, 0
  br i1 %.not.i.i, label %l_Lean_Server_References_removeIlean.exit, label %23

23:                                               ; preds = %22
  tail call void @lean_dec_ref_cold(ptr noundef nonnull %13) #8
  br label %l_Lean_Server_References_removeIlean.exit

l_Lean_Server_References_removeIlean.exit:        ; preds = %lean_inc.exit.i, %20, %22, %23
  %24 = ptrtoint ptr %1 to i64
  %25 = and i64 %24, 1
  %.not = icmp eq i64 %25, 0
  br i1 %.not, label %26, label %lean_dec.exit

26:                                               ; preds = %l_Lean_Server_References_removeIlean.exit
  %27 = load i32, ptr %1, align 4, !tbaa !8
  %28 = icmp sgt i32 %27, 1
  br i1 %28, label %29, label %31, !prof !11

29:                                               ; preds = %26
  %30 = add nsw i32 %27, -1
  store i32 %30, ptr %1, align 4, !tbaa !8
  br label %lean_dec.exit

31:                                               ; preds = %26
  %.not.i = icmp eq i32 %27, 0
  br i1 %.not.i, label %lean_dec.exit, label %32

32:                                               ; preds = %31
  tail call void @lean_dec_ref_cold(ptr noundef nonnull %1) #8
  br label %lean_dec.exit

lean_dec.exit:                                    ; preds = %32, %31, %29, %l_Lean_Server_References_removeIlean.exit
  ret ptr %14
}